target datalayout = "e-m:e-p270:32:32-p271:32:32-p272:64:64-i64:64-i128:128-f80:128-n8:16:32:64-S128"
target triple = "x86_64-pc-linux-gnu"

%struct.rb_vm_struct = type { i64, %struct.anon, ptr, i64, %struct.ccan_list_head, i32, i8, i64, ptr, [5 x i64], i64, i64, i64, i64, i64, i64, i64, i64, i64, ptr, ptr, ptr, %struct.anon.3, ptr, i32, %struct.ccan_list_head, %union.pthread_mutex_t, i64, i64, i64, i64, i32, %struct.anon.4, ptr, ptr, ptr, ptr, ptr, ptr, ptr, ptr, i64, [1023 x ptr], %struct.anon.5 }
%struct.anon = type { %struct.ccan_list_head, i32, i32, ptr, ptr, %struct.anon.0, %struct.anon.2 }
%struct.anon.0 = type { %union.pthread_mutex_t, ptr, i32, %union.pthread_cond_t, i8 }
%union.pthread_cond_t = type { %struct.__pthread_cond_s }
%struct.__pthread_cond_s = type { %union.__atomic_wide_counter, %union.__atomic_wide_counter, [2 x i32], [2 x i32], i32, i32, [2 x i32] }
%union.__atomic_wide_counter = type { i64 }
%struct.anon.2 = type { %union.pthread_mutex_t, ptr, i8, %union.pthread_cond_t, i32, i32, i32, i32, %struct.ccan_list_head, i32, %struct.ccan_list_head, %struct.ccan_list_head, %struct.ccan_list_head, i8, %union.pthread_cond_t, %union.pthread_cond_t, i8, i32, i32 }
%struct.anon.3 = type { [65 x i64] }
%struct.ccan_list_head = type { %struct.ccan_list_node }
%struct.ccan_list_node = type { ptr, ptr }
%union.pthread_mutex_t = type { %struct.__pthread_mutex_s }
%struct.__pthread_mutex_s = type { i32, i32, i32, i32, i32, i16, i16, %struct.__pthread_internal_list }
%struct.__pthread_internal_list = type { ptr, ptr }
%struct.anon.4 = type { ptr, ptr }
%struct.anon.5 = type { i64, i64, i64, i64 }

; Function Attrs: nounwind sspstrong uwtable
define hidden void @rb_vm_trap_exit(ptr noundef %0) #1 {
  %2 = alloca ptr, align 8
  %3 = alloca i64, align 8
  store ptr %0, ptr %2, align 8, !tbaa !58
  call void @llvm.lifetime.start.p0(i64 8, ptr %3) #22
  %4 = load ptr, ptr %2, align 8, !tbaa !58
  %5 = getelementptr inbounds nuw %struct.rb_vm_struct, ptr %4, i32 0, i32 22
  %6 = getelementptr inbounds nuw %struct.anon.3, ptr %5, i32 0, i32 0
  %7 = getelementptr [65 x i64], ptr %6, i64 0, i64 0
  %8 = load i64, ptr %7, align 8, !tbaa !22
  store i64 %8, ptr %3, align 8, !tbaa !22
  %9 = load i64, ptr %3, align 8, !tbaa !22
  %10 = icmp ne i64 %9, 0
  br i1 %10, label %11, label %18

11:                                               ; preds = %1
  %12 = load ptr, ptr %2, align 8, !tbaa !58
  %13 = getelementptr inbounds nuw %struct.rb_vm_struct, ptr %12, i32 0, i32 22
  %14 = getelementptr inbounds nuw %struct.anon.3, ptr %13, i32 0, i32 0
  %15 = getelementptr [65 x i64], ptr %14, i64 0, i64 0
  store i64 0, ptr %15, align 8, !tbaa !22
  %16 = load i64, ptr %3, align 8, !tbaa !22
  %17 = call i32 @signal_exec(i64 noundef %16, i32 noundef 0)
  br label %18

18:                                               ; preds = %11, %1
  call void @llvm.lifetime.end.p0(i64 8, ptr %3) #22
  ret void
}