; Function Attrs: nounwind sspstrong uwtable
define hidden void @rb_vm_trap_exit(ptr noundef captures(none) %0) local_unnamed_addr #1 {
  %2 = getelementptr inbounds nuw i8, ptr %0, i64 664
  %3 = load i64, ptr %2, align 8, !tbaa !20
  %.not = icmp eq i64 %3, 0
  br i1 %.not, label %6, label %4

4:                                                ; preds = %1
  store i64 0, ptr %2, align 8, !tbaa !20
  %5 = tail call fastcc i32 @signal_exec(i64 noundef %3, i32 noundef 0)
  br label %6

6:                                                ; preds = %4, %1
  ret void
}